target datalayout = "e-m:e-p270:32:32-p271:32:32-p272:64:64-i64:64-i128:128-f80:128-n8:16:32:64-S128"
target triple = "x86_64-pc-linux-gnu"

%struct.AVFilterContext = type { ptr, ptr, ptr, ptr, ptr, i32, ptr, ptr, i32, ptr, ptr, i32, i32, ptr, ptr, ptr, ptr, i32, ptr, i32, i32 }
%struct.AFreqShift = type { ptr, double, double, i32, i32, [32 x double], [32 x float], i64, ptr, ptr, ptr, ptr, ptr }
%struct.ThreadData = type { ptr, ptr }
%struct.AVFilterLink = type { ptr, ptr, ptr, ptr, i32, i32, i32, i32, %struct.AVRational, i32, i32, i32, %struct.AVChannelLayout, %struct.AVRational, ptr, i32, %struct.AVFilterFormatsConfig, %struct.AVFilterFormatsConfig }
%struct.AVChannelLayout = type { i32, i32, %union.anon.1, ptr }
%union.anon.1 = type { i64 }
%struct.AVRational = type { i32, i32 }
%struct.AVFilterFormatsConfig = type { ptr, ptr, ptr, ptr, ptr }
%struct.AVFrame = type { [8 x ptr], [8 x i32], ptr, i32, i32, i32, i32, i32, %struct.AVRational, i64, i64, %struct.AVRational, i32, ptr, i32, i32, [8 x ptr], ptr, i32, ptr, i32, i32, i32, i32, i32, i32, i32, i64, ptr, i32, ptr, ptr, i64, i64, i64, i64, ptr, %struct.AVChannelLayout, i64 }

; Function Attrs: nounwind uwtable
define internal i32 @filter_frame(ptr noundef %0, ptr noundef %1) #2 {
  %3 = alloca i32, align 4
  %4 = alloca ptr, align 8
  %5 = alloca ptr, align 8
  %6 = alloca ptr, align 8
  %7 = alloca ptr, align 8
  %8 = alloca ptr, align 8
  %9 = alloca ptr, align 8
  %10 = alloca %struct.ThreadData, align 8
  %11 = alloca i32, align 4
  store ptr %0, ptr %4, align 8, !tbaa !24
  store ptr %1, ptr %5, align 8, !tbaa !26
  call void @llvm.lifetime.start.p0(i64 8, ptr %6) #6
  %12 = load ptr, ptr %4, align 8, !tbaa !24
  %13 = getelementptr inbounds nuw %struct.AVFilterLink, ptr %12, i32 0, i32 2
  %14 = load ptr, ptr %13, align 8, !tbaa !28
  store ptr %14, ptr %6, align 8, !tbaa !4
  call void @llvm.lifetime.start.p0(i64 8, ptr %7) #6
  %15 = load ptr, ptr %6, align 8, !tbaa !4
  %16 = getelementptr inbounds nuw %struct.AVFilterContext, ptr %15, i32 0, i32 7
  %17 = load ptr, ptr %16, align 8, !tbaa !36
  %18 = getelementptr inbounds ptr, ptr %17, i64 0
  %19 = load ptr, ptr %18, align 8, !tbaa !24
  store ptr %19, ptr %7, align 8, !tbaa !24
  call void @llvm.lifetime.start.p0(i64 8, ptr %8) #6
  %20 = load ptr, ptr %6, align 8, !tbaa !4
  %21 = getelementptr inbounds nuw %struct.AVFilterContext, ptr %20, i32 0, i32 9
  %22 = load ptr, ptr %21, align 8, !tbaa !9
  store ptr %22, ptr %8, align 8, !tbaa !22
  call void @llvm.lifetime.start.p0(i64 8, ptr %9) #6
  call void @llvm.lifetime.start.p0(i64 16, ptr %10) #6
  %23 = load ptr, ptr %8, align 8, !tbaa !22
  %24 = getelementptr inbounds nuw %struct.AFreqShift, ptr %23, i32 0, i32 4
  %25 = load i32, ptr %24, align 4, !tbaa !37
  %26 = load ptr, ptr %8, align 8, !tbaa !22
  %27 = getelementptr inbounds nuw %struct.AFreqShift, ptr %26, i32 0, i32 3
  %28 = load i32, ptr %27, align 8, !tbaa !41
  %29 = icmp ne i32 %25, %28
  br i1 %29, label %30, label %46

30:                                               ; preds = %2
  %31 = load ptr, ptr %8, align 8, !tbaa !22
  %32 = getelementptr inbounds nuw %struct.AFreqShift, ptr %31, i32 0, i32 5
  %33 = getelementptr inbounds [32 x double], ptr %32, i64 0, i64 0
  %34 = load ptr, ptr %8, align 8, !tbaa !22
  %35 = getelementptr inbounds nuw %struct.AFreqShift, ptr %34, i32 0, i32 6
  %36 = getelementptr inbounds [32 x float], ptr %35, i64 0, i64 0
  %37 = load ptr, ptr %8, align 8, !tbaa !22
  %38 = getelementptr inbounds nuw %struct.AFreqShift, ptr %37, i32 0, i32 3
  %39 = load i32, ptr %38, align 8, !tbaa !41
  %40 = mul nsw i32 %39, 2
  %41 = load ptr, ptr %4, align 8, !tbaa !24
  %42 = getelementptr inbounds nuw %struct.AVFilterLink, ptr %41, i32 0, i32 11
  %43 = load i32, ptr %42, align 8, !tbaa !42
  %44 = sitofp i32 %43 to double
  %45 = fdiv nsz double 4.000000e+01, %44
  call void @compute_coefs(ptr noundef %33, ptr noundef %36, i32 noundef %40, double noundef %45)
  br label %46

46:                                               ; preds = %30, %2
  %47 = load ptr, ptr %8, align 8, !tbaa !22
  %48 = getelementptr inbounds nuw %struct.AFreqShift, ptr %47, i32 0, i32 3
  %49 = load i32, ptr %48, align 8, !tbaa !41
  %50 = load ptr, ptr %8, align 8, !tbaa !22
  %51 = getelementptr inbounds nuw %struct.AFreqShift, ptr %50, i32 0, i32 4
  store i32 %49, ptr %51, align 4, !tbaa !37
  %52 = load ptr, ptr %5, align 8, !tbaa !26
  %53 = call i32 @av_frame_is_writable(ptr noundef %52)
  %54 = icmp ne i32 %53, 0
  br i1 %54, label %55, label %57

55:                                               ; preds = %46
  %56 = load ptr, ptr %5, align 8, !tbaa !26
  store ptr %56, ptr %9, align 8, !tbaa !26
  br label %70

57:                                               ; preds = %46
  %58 = load ptr, ptr %7, align 8, !tbaa !24
  %59 = load ptr, ptr %5, align 8, !tbaa !26
  %60 = getelementptr inbounds nuw %struct.AVFrame, ptr %59, i32 0, i32 5
  %61 = load i32, ptr %60, align 8, !tbaa !43
  %62 = call ptr @ff_get_audio_buffer(ptr noundef %58, i32 noundef %61)
  store ptr %62, ptr %9, align 8, !tbaa !26
  %63 = load ptr, ptr %9, align 8, !tbaa !26
  %64 = icmp ne ptr %63, null
  br i1 %64, label %66, label %65

65:                                               ; preds = %57
  call void @av_frame_free(ptr noundef %5)
  store i32 -12, ptr %3, align 4
  store i32 1, ptr %11, align 4
  br label %110

66:                                               ; preds = %57
  %67 = load ptr, ptr %9, align 8, !tbaa !26
  %68 = load ptr, ptr %5, align 8, !tbaa !26
  %69 = call i32 @av_frame_copy_props(ptr noundef %67, ptr noundef %68)
  br label %70

70:                                               ; preds = %66, %55
  %71 = load ptr, ptr %5, align 8, !tbaa !26
  %72 = getelementptr inbounds nuw %struct.ThreadData, ptr %10, i32 0, i32 0
  store ptr %71, ptr %72, align 8, !tbaa !48
  %73 = load ptr, ptr %9, align 8, !tbaa !26
  %74 = getelementptr inbounds nuw %struct.ThreadData, ptr %10, i32 0, i32 1
  store ptr %73, ptr %74, align 8, !tbaa !50
  %75 = load ptr, ptr %6, align 8, !tbaa !4
  %76 = load ptr, ptr %4, align 8, !tbaa !24
  %77 = getelementptr inbounds nuw %struct.AVFilterLink, ptr %76, i32 0, i32 12
  %78 = getelementptr inbounds nuw %struct.AVChannelLayout, ptr %77, i32 0, i32 1
  %79 = load i32, ptr %78, align 4, !tbaa !51
  %80 = load ptr, ptr %6, align 8, !tbaa !4
  %81 = call i32 @ff_filter_get_nb_threads(ptr noundef %80) #7
  %82 = icmp sgt i32 %79, %81
  br i1 %82, label %83, label %86

83:                                               ; preds = %70
  %84 = load ptr, ptr %6, align 8, !tbaa !4
  %85 = call i32 @ff_filter_get_nb_threads(ptr noundef %84) #7
  br label %91

86:                                               ; preds = %70
  %87 = load ptr, ptr %4, align 8, !tbaa !24
  %88 = getelementptr inbounds nuw %struct.AVFilterLink, ptr %87, i32 0, i32 12
  %89 = getelementptr inbounds nuw %struct.AVChannelLayout, ptr %88, i32 0, i32 1
  %90 = load i32, ptr %89, align 4, !tbaa !51
  br label %91

91:                                               ; preds = %86, %83
  %92 = phi i32 [ %85, %83 ], [ %90, %86 ]
  %93 = call i32 @ff_filter_execute(ptr noundef %75, ptr noundef @filter_channels, ptr noundef %10, ptr noundef null, i32 noundef %92)
  %94 = load ptr, ptr %5, align 8, !tbaa !26
  %95 = getelementptr inbounds nuw %struct.AVFrame, ptr %94, i32 0, i32 5
  %96 = load i32, ptr %95, align 8, !tbaa !43
  %97 = sext i32 %96 to i64
  %98 = load ptr, ptr %8, align 8, !tbaa !22
  %99 = getelementptr inbounds nuw %struct.AFreqShift, ptr %98, i32 0, i32 7
  %100 = load i64, ptr %99, align 8, !tbaa !52
  %101 = add nsw i64 %100, %97
  store i64 %101, ptr %99, align 8, !tbaa !52
  %102 = load ptr, ptr %9, align 8, !tbaa !26
  %103 = load ptr, ptr %5, align 8, !tbaa !26
  %104 = icmp ne ptr %102, %103
  br i1 %104, label %105, label %106

105:                                              ; preds = %91
  call void @av_frame_free(ptr noundef %5)
  br label %106

106:                                              ; preds = %105, %91
  %107 = load ptr, ptr %7, align 8, !tbaa !24
  %108 = load ptr, ptr %9, align 8, !tbaa !26
  %109 = call i32 @ff_filter_frame(ptr noundef %107, ptr noundef %108)
  store i32 %109, ptr %3, align 4
  store i32 1, ptr %11, align 4
  br label %110

110:                                              ; preds = %106, %65
  call void @llvm.lifetime.end.p0(i64 16, ptr %10) #6
  call void @llvm.lifetime.end.p0(i64 8, ptr %9) #6
  call void @llvm.lifetime.end.p0(i64 8, ptr %8) #6
  call void @llvm.lifetime.end.p0(i64 8, ptr %7) #6
  call void @llvm.lifetime.end.p0(i64 8, ptr %6) #6
  %111 = load i32, ptr %3, align 4
  ret i32 %111
}