; Function Attrs: nounwind uwtable
define internal i32 @filter_frame(ptr noundef readonly captures(none) %0, ptr noundef %1) #2 {
  %3 = alloca ptr, align 8
  %4 = alloca %struct.ThreadData, align 8
  store ptr %1, ptr %3, align 8, !tbaa !20
  %5 = getelementptr inbounds nuw i8, ptr %0, i64 16
  %6 = load ptr, ptr %5, align 8, !tbaa !22
  %7 = getelementptr inbounds nuw i8, ptr %6, i64 56
  %8 = load ptr, ptr %7, align 8, !tbaa !31
  %9 = load ptr, ptr %8, align 8, !tbaa !32
  %10 = getelementptr inbounds nuw i8, ptr %6, i64 72
  %11 = load ptr, ptr %10, align 8, !tbaa !4
  call void @llvm.lifetime.start.p0(i64 16, ptr nonnull %4) #10
  %12 = getelementptr inbounds nuw i8, ptr %11, i64 28
  %13 = load i32, ptr %12, align 4, !tbaa !34
  %14 = getelementptr inbounds nuw i8, ptr %11, i64 24
  %15 = load i32, ptr %14, align 8, !tbaa !38
  %.not = icmp eq i32 %13, %15
  br i1 %.not, label %24, label %16

16:                                               ; preds = %2
  %17 = getelementptr inbounds nuw i8, ptr %11, i64 32
  %18 = getelementptr inbounds nuw i8, ptr %11, i64 288
  %19 = shl nsw i32 %15, 1
  %20 = getelementptr inbounds nuw i8, ptr %0, i64 64
  %21 = load i32, ptr %20, align 8, !tbaa !39
  %22 = sitofp i32 %21 to double
  %23 = fdiv nsz double 4.000000e+01, %22
  tail call fastcc void @compute_coefs(ptr noundef nonnull %17, ptr noundef nonnull %18, i32 noundef %19, double noundef %23)
  %.pre = load i32, ptr %14, align 8, !tbaa !38
  br label %24

24:                                               ; preds = %16, %2
  %25 = phi i32 [ %.pre, %16 ], [ %13, %2 ]
  store i32 %25, ptr %12, align 4, !tbaa !34
  %26 = tail call i32 @av_frame_is_writable(ptr noundef %1) #10
  %.not29 = icmp eq i32 %26, 0
  br i1 %.not29, label %27, label %34

27:                                               ; preds = %24
  %28 = getelementptr inbounds nuw i8, ptr %1, i64 112
  %29 = load i32, ptr %28, align 8, !tbaa !40
  %30 = tail call ptr @ff_get_audio_buffer(ptr noundef %9, i32 noundef %29) #10
  %.not30 = icmp eq ptr %30, null
  br i1 %.not30, label %31, label %32

31:                                               ; preds = %27
  call void @av_frame_free(ptr noundef nonnull %3) #10
  br label %50

32:                                               ; preds = %27
  %33 = tail call i32 @av_frame_copy_props(ptr noundef nonnull %30, ptr noundef nonnull %1) #10
  br label %34

34:                                               ; preds = %24, %32
  %.0 = phi ptr [ %30, %32 ], [ %1, %24 ]
  store ptr %1, ptr %4, align 8, !tbaa !45
  %35 = getelementptr inbounds nuw i8, ptr %4, i64 8
  store ptr %.0, ptr %35, align 8, !tbaa !47
  %36 = getelementptr inbounds nuw i8, ptr %0, i64 76
  %37 = load i32, ptr %36, align 4, !tbaa !48
  %38 = tail call i32 @ff_filter_get_nb_threads(ptr noundef nonnull %6) #11
  %. = tail call i32 @llvm.smin.i32(i32 %37, i32 %38)
  %39 = call i32 @ff_filter_execute(ptr noundef nonnull %6, ptr noundef nonnull @filter_channels, ptr noundef nonnull %4, ptr noundef null, i32 noundef %.) #10
  %40 = load ptr, ptr %3, align 8, !tbaa !20
  %41 = getelementptr inbounds nuw i8, ptr %40, i64 112
  %42 = load i32, ptr %41, align 8, !tbaa !40
  %43 = sext i32 %42 to i64
  %44 = getelementptr inbounds nuw i8, ptr %11, i64 416
  %45 = load i64, ptr %44, align 8, !tbaa !49
  %46 = add nsw i64 %45, %43
  store i64 %46, ptr %44, align 8, !tbaa !49
  %.not31 = icmp eq ptr %.0, %40
  br i1 %.not31, label %48, label %47

47:                                               ; preds = %34
  call void @av_frame_free(ptr noundef nonnull %3) #10
  br label %48

48:                                               ; preds = %47, %34
  %49 = call i32 @ff_filter_frame(ptr noundef %9, ptr noundef %.0) #10
  br label %50

50:                                               ; preds = %48, %31
  %.024 = phi i32 [ %49, %48 ], [ -12, %31 ]
  call void @llvm.lifetime.end.p0(i64 16, ptr nonnull %4) #10
  ret i32 %.024
}